target datalayout = "e-m:e-p270:32:32-p271:32:32-p272:64:64-i64:64-i128:128-f80:128-n8:16:32:64-S128"
target triple = "x86_64-pc-linux-gnu"

@stderr = external global ptr, align 8
@.str.4 = private unnamed_addr constant [17 x i8] c"libpng error: %s\00", align 1
@.str.5 = private unnamed_addr constant [10 x i8] c"undefined\00", align 1
@.str.6 = private unnamed_addr constant [2 x i8] c"\0A\00", align 1

; Function Attrs: noreturn nounwind uwtable
define internal void @png_default_error(ptr noalias noundef %0, ptr noundef %1) #0 {
  %3 = alloca ptr, align 8
  %4 = alloca ptr, align 8
  store ptr %0, ptr %3, align 8, !tbaa !3
  store ptr %1, ptr %4, align 8, !tbaa !8
  %5 = load ptr, ptr @stderr, align 8, !tbaa !25
  %6 = load ptr, ptr %4, align 8, !tbaa !8
  %7 = icmp ne ptr %6, null
  br i1 %7, label %8, label %10

8:                                                ; preds = %2
  %9 = load ptr, ptr %4, align 8, !tbaa !8
  br label %11

10:                                               ; preds = %2
  br label %11

11:                                               ; preds = %10, %8
  %12 = phi ptr [ %9, %8 ], [ @.str.5, %10 ]
  %13 = call i32 (ptr, ptr, ...) @fprintf(ptr noundef %5, ptr noundef @.str.4, ptr noundef %12) #10
  %14 = load ptr, ptr @stderr, align 8, !tbaa !25
  %15 = call i32 (ptr, ptr, ...) @fprintf(ptr noundef %14, ptr noundef @.str.6) #10
  %16 = load ptr, ptr %3, align 8, !tbaa !3
  call void @png_longjmp(ptr noundef %16, i32 noundef 1) #9
  unreachable
}