; Function Attrs: cold noreturn nounwind uwtable
define internal fastcc void @png_default_error(ptr noalias noundef captures(address_is_null) %0, ptr noundef %1) unnamed_addr #1 {
  %3 = load ptr, ptr @stderr, align 8, !tbaa !22
  %.not = icmp eq ptr %1, null
  %4 = select i1 %.not, ptr @.str.5, ptr %1
  %5 = tail call i32 (ptr, ptr, ...) @fprintf(ptr noundef %3, ptr noundef nonnull @.str.4, ptr noundef nonnull %4) #23
  %6 = load ptr, ptr @stderr, align 8, !tbaa !22
  %fputc = tail call i32 @fputc(i32 10, ptr %6)
  tail call void @png_longjmp(ptr noundef %0, i32 noundef 1) #22
  unreachable
}